target datalayout = "e-m:e-p270:32:32-p271:32:32-p272:64:64-i64:64-i128:128-f80:128-n8:16:32:64-S128"
target triple = "x86_64-pc-linux-gnu"

%class.QString = type { %struct.QArrayDataPointer }
%struct.QArrayDataPointer = type { ptr, ptr, i64 }
%class.VoipCallsDialog = type { %class.WiresharkDialog.base, i8, ptr, ptr, ptr, ptr, ptr, %struct._voip_calls_tapinfo, ptr, ptr, ptr, ptr, ptr, i8, ptr }
%class.WiresharkDialog.base = type <{ %class.GeometryStateDialog, ptr, i8, [7 x i8], %class.QString, %class.QList, i32, i8 }>
%class.GeometryStateDialog = type { %class.QDialog, %class.QString }
%class.QDialog = type { %class.QWidget }
%class.QWidget = type { %class.QObject, %class.QPaintDevice.base, ptr }
%class.QObject = type { ptr, %class.QScopedPointer }
%class.QScopedPointer = type { ptr }
%class.QPaintDevice.base = type <{ ptr, i16 }>
%class.QList = type { %struct.QArrayDataPointer.0 }
%struct.QArrayDataPointer.0 = type { ptr, ptr, i64 }
%struct._voip_calls_tapinfo = type { ptr, ptr, ptr, ptr, i32, ptr, [1 x ptr], i32, ptr, i32, i32, i32, ptr, ptr, i32, ptr, i32, i8, i32, ptr, i32, i32, i32, i8, i32, ptr, ptr, ptr, i8, i32, i32, i32, i16, i32, i32, i32, i32, i32, i32, i32, i32, i32 }
%class.Ui_VoipCallsDialog = type { ptr, ptr, ptr, ptr, ptr, ptr, ptr, ptr, ptr, ptr, ptr, ptr, ptr, ptr, ptr, ptr, ptr }
%class.WiresharkDialog = type <{ %class.GeometryStateDialog, ptr, i8, [7 x i8], %class.QString, %class.QList, i32, i8, [3 x i8] }>
%struct._seq_analysis_info = type { ptr, i32, i32, ptr, ptr, [40 x %struct._address], i32 }
%struct._address = type { i32, i32, ptr, ptr }

; Function Attrs: mustprogress uwtable
define void @_ZN15VoipCallsDialog13updateWidgetsEv(ptr noundef nonnull align 8 dereferenceable(480) %0) unnamed_addr #0 align 2 {
  %2 = alloca ptr, align 8
  %3 = alloca i8, align 1
  %4 = alloca i8, align 1
  %5 = alloca i8, align 1
  store ptr %0, ptr %2, align 8
  %6 = load ptr, ptr %2, align 8
  %7 = getelementptr inbounds %class.VoipCallsDialog, ptr %6, i32 0, i32 2
  %8 = load ptr, ptr %7, align 8
  %9 = getelementptr inbounds %class.Ui_VoipCallsDialog, ptr %8, i32 0, i32 10
  %10 = load ptr, ptr %9, align 8
  %11 = call noundef ptr @_ZNK17QAbstractItemView14selectionModelEv(ptr noundef nonnull align 8 dereferenceable(40) %10)
  %12 = call noundef zeroext i1 @_ZNK19QItemSelectionModel12hasSelectionEv(ptr noundef nonnull align 8 dereferenceable(16) %11)
  %13 = zext i1 %12 to i8
  store i8 %13, ptr %3, align 1
  store i8 0, ptr %4, align 1
  %14 = getelementptr inbounds %class.VoipCallsDialog, ptr %6, i32 0, i32 7
  %15 = getelementptr inbounds %struct._voip_calls_tapinfo, ptr %14, i32 0, i32 12
  %16 = load ptr, ptr %15, align 8
  %17 = icmp ne ptr %16, null
  br i1 %17, label %18, label %26

18:                                               ; preds = %1
  %19 = getelementptr inbounds %class.VoipCallsDialog, ptr %6, i32 0, i32 7
  %20 = getelementptr inbounds %struct._voip_calls_tapinfo, ptr %19, i32 0, i32 12
  %21 = load ptr, ptr %20, align 8
  %22 = getelementptr inbounds %struct._seq_analysis_info, ptr %21, i32 0, i32 3
  %23 = load ptr, ptr %22, align 8
  %24 = icmp ne ptr %23, null
  br i1 %24, label %25, label %26

25:                                               ; preds = %18
  store i8 1, ptr %4, align 1
  br label %26

26:                                               ; preds = %25, %18, %1
  %27 = load i8, ptr %3, align 1
  %28 = trunc i8 %27 to i1
  br i1 %28, label %29, label %37

29:                                               ; preds = %26
  %30 = load i8, ptr %4, align 1
  %31 = trunc i8 %30 to i1
  br i1 %31, label %32, label %37

32:                                               ; preds = %29
  %33 = getelementptr inbounds %class.WiresharkDialog, ptr %6, i32 0, i32 2
  %34 = load i8, ptr %33, align 8
  %35 = trunc i8 %34 to i1
  %36 = xor i1 %35, true
  br label %37

37:                                               ; preds = %32, %29, %26
  %38 = phi i1 [ false, %29 ], [ false, %26 ], [ %36, %32 ]
  %39 = zext i1 %38 to i8
  store i8 %39, ptr %5, align 1
  %40 = getelementptr inbounds %class.VoipCallsDialog, ptr %6, i32 0, i32 9
  %41 = load ptr, ptr %40, align 8
  %42 = load i8, ptr %5, align 1
  %43 = trunc i8 %42 to i1
  call void @_ZN7QWidget10setEnabledEb(ptr noundef nonnull align 8 dereferenceable(40) %41, i1 noundef zeroext %43)
  %44 = getelementptr inbounds %class.VoipCallsDialog, ptr %6, i32 0, i32 10
  %45 = load ptr, ptr %44, align 8
  %46 = load i8, ptr %5, align 1
  %47 = trunc i8 %46 to i1
  call void @_ZN7QWidget10setEnabledEb(ptr noundef nonnull align 8 dereferenceable(40) %45, i1 noundef zeroext %47)
  %48 = getelementptr inbounds %class.VoipCallsDialog, ptr %6, i32 0, i32 2
  %49 = load ptr, ptr %48, align 8
  %50 = getelementptr inbounds %class.Ui_VoipCallsDialog, ptr %49, i32 0, i32 6
  %51 = load ptr, ptr %50, align 8
  %52 = load i8, ptr %5, align 1
  %53 = trunc i8 %52 to i1
  call void @_ZN7QAction10setEnabledEb(ptr noundef nonnull align 8 dereferenceable(16) %51, i1 noundef zeroext %53)
  %54 = getelementptr inbounds %class.VoipCallsDialog, ptr %6, i32 0, i32 2
  %55 = load ptr, ptr %54, align 8
  %56 = getelementptr inbounds %class.Ui_VoipCallsDialog, ptr %55, i32 0, i32 7
  %57 = load ptr, ptr %56, align 8
  %58 = load i8, ptr %5, align 1
  %59 = trunc i8 %58 to i1
  call void @_ZN7QAction10setEnabledEb(ptr noundef nonnull align 8 dereferenceable(16) %57, i1 noundef zeroext %59)
  %60 = getelementptr inbounds %class.VoipCallsDialog, ptr %6, i32 0, i32 11
  %61 = load ptr, ptr %60, align 8
  %62 = load i8, ptr %5, align 1
  %63 = trunc i8 %62 to i1
  call void @_ZN7QWidget10setEnabledEb(ptr noundef nonnull align 8 dereferenceable(40) %61, i1 noundef zeroext %63)
  call void @_ZN15WiresharkDialog13updateWidgetsEv(ptr noundef nonnull align 8 dereferenceable(133) %6)
  ret void
}