; Function Attrs: mustprogress uwtable
define void @_ZN15VoipCallsDialog13updateWidgetsEv(ptr noundef nonnull align 8 dereferenceable(480) %0) unnamed_addr #0 align 2 {
  %2 = getelementptr inbounds i8, ptr %0, i64 136
  %3 = load ptr, ptr %2, align 8
  %4 = getelementptr inbounds i8, ptr %3, i64 80
  %5 = load ptr, ptr %4, align 8
  %6 = tail call noundef ptr @_ZNK17QAbstractItemView14selectionModelEv(ptr noundef nonnull align 8 dereferenceable(40) %5)
  %7 = tail call noundef zeroext i1 @_ZNK19QItemSelectionModel12hasSelectionEv(ptr noundef nonnull align 8 dereferenceable(16) %6)
  %8 = getelementptr inbounds i8, ptr %0, i64 264
  %9 = load ptr, ptr %8, align 8
  %.not = icmp eq ptr %9, null
  br i1 %.not, label %.thread, label %10

10:                                               ; preds = %1
  %11 = getelementptr inbounds i8, ptr %9, i64 16
  %12 = load ptr, ptr %11, align 8
  %.not8.not = icmp ne ptr %12, null
  %brmerge.not = and i1 %7, %.not8.not
  br i1 %brmerge.not, label %13, label %.thread

13:                                               ; preds = %10
  %14 = getelementptr inbounds i8, ptr %0, i64 72
  %15 = load i8, ptr %14, align 8
  %16 = and i8 %15, 1
  %.not9 = icmp eq i8 %16, 0
  br label %.thread

.thread:                                          ; preds = %1, %10, %13
  %17 = phi i1 [ false, %10 ], [ %.not9, %13 ], [ false, %1 ]
  %18 = getelementptr inbounds i8, ptr %0, i64 432
  %19 = load ptr, ptr %18, align 8
  tail call void @_ZN7QWidget10setEnabledEb(ptr noundef nonnull align 8 dereferenceable(40) %19, i1 noundef zeroext %17)
  %20 = getelementptr inbounds i8, ptr %0, i64 440
  %21 = load ptr, ptr %20, align 8
  tail call void @_ZN7QWidget10setEnabledEb(ptr noundef nonnull align 8 dereferenceable(40) %21, i1 noundef zeroext %17)
  %22 = load ptr, ptr %2, align 8
  %23 = getelementptr inbounds i8, ptr %22, i64 48
  %24 = load ptr, ptr %23, align 8
  tail call void @_ZN7QAction10setEnabledEb(ptr noundef nonnull align 8 dereferenceable(16) %24, i1 noundef zeroext %17)
  %25 = load ptr, ptr %2, align 8
  %26 = getelementptr inbounds i8, ptr %25, i64 56
  %27 = load ptr, ptr %26, align 8
  tail call void @_ZN7QAction10setEnabledEb(ptr noundef nonnull align 8 dereferenceable(16) %27, i1 noundef zeroext %17)
  %28 = getelementptr inbounds i8, ptr %0, i64 448
  %29 = load ptr, ptr %28, align 8
  tail call void @_ZN7QWidget10setEnabledEb(ptr noundef nonnull align 8 dereferenceable(40) %29, i1 noundef zeroext %17)
  tail call void @_ZN15WiresharkDialog13updateWidgetsEv(ptr noundef nonnull align 8 dereferenceable(133) %0)
  ret void
}